; Function Attrs: cold mustprogress nofree norecurse nosync nounwind optsize willreturn memory(argmem: readwrite) uwtable
define internal noundef i32 @ff_tx_mdct_naive_init_int32_c(ptr noundef writeonly captures(none) initializes((140, 152)) %0, ptr readnone captures(none) %1, i64 %2, ptr readnone captures(none) %3, i32 %4, i32 %5, ptr noundef readonly captures(none) %6) #14 {
  %8 = load float, ptr %6, align 4, !tbaa !82
  %9 = fpext nsz float %8 to double
  %10 = getelementptr inbounds nuw i8, ptr %0, i64 144
  store double %9, ptr %10, align 8, !tbaa !25
  %11 = getelementptr inbounds nuw i8, ptr %0, i64 140
  store float %8, ptr %11, align 4, !tbaa !83
  ret i32 0
}